target datalayout = "e-m:e-p270:32:32-p271:32:32-p272:64:64-i64:64-i128:128-f80:128-n8:16:32:64-S128"
target triple = "x86_64-pc-linux-gnu"

%struct.cs_di_sparse = type { i32, i32, i32, ptr, ptr, ptr, i32 }
%struct.cs_di_symbolic = type { ptr, ptr, ptr, ptr, ptr, i32, double, double }
%struct.cs_di_numeric = type { ptr, ptr, ptr, ptr }

; Function Attrs: mustprogress uwtable
define noundef i32 @_ZN3g2o17csparse_extension14cs_cholsolsymbEPK12cs_di_sparsePdPK14cs_di_symbolicS4_Pi(ptr noundef %0, ptr noundef %1, ptr noundef %2, ptr noundef %3, ptr noundef %4) #0 {
  %6 = alloca i32, align 4
  %7 = alloca ptr, align 8
  %8 = alloca ptr, align 8
  %9 = alloca ptr, align 8
  %10 = alloca ptr, align 8
  %11 = alloca ptr, align 8
  %12 = alloca ptr, align 8
  %13 = alloca i32, align 4
  %14 = alloca i32, align 4
  store ptr %0, ptr %7, align 8
  store ptr %1, ptr %8, align 8
  store ptr %2, ptr %9, align 8
  store ptr %3, ptr %10, align 8
  store ptr %4, ptr %11, align 8
  %15 = load ptr, ptr %7, align 8
  %16 = icmp ne ptr %15, null
  br i1 %16, label %17, label %31

17:                                               ; preds = %5
  %18 = load ptr, ptr %7, align 8
  %19 = getelementptr inbounds nuw %struct.cs_di_sparse, ptr %18, i32 0, i32 6
  %20 = load i32, ptr %19, align 8
  %21 = icmp eq i32 %20, -1
  br i1 %21, label %22, label %31

22:                                               ; preds = %17
  %23 = load ptr, ptr %8, align 8
  %24 = icmp ne ptr %23, null
  br i1 %24, label %25, label %31

25:                                               ; preds = %22
  %26 = load ptr, ptr %9, align 8
  %27 = icmp ne ptr %26, null
  br i1 %27, label %28, label %31

28:                                               ; preds = %25
  %29 = load ptr, ptr %10, align 8
  %30 = icmp ne ptr %29, null
  br i1 %30, label %32, label %31

31:                                               ; preds = %28, %25, %22, %17, %5
  store i32 0, ptr %6, align 4
  br label %79

32:                                               ; preds = %28
  %33 = load ptr, ptr %7, align 8
  %34 = getelementptr inbounds nuw %struct.cs_di_sparse, ptr %33, i32 0, i32 2
  %35 = load i32, ptr %34, align 8
  store i32 %35, ptr %13, align 4
  %36 = load ptr, ptr %7, align 8
  %37 = load ptr, ptr %9, align 8
  %38 = load ptr, ptr %11, align 8
  %39 = load ptr, ptr %10, align 8
  %40 = call noundef ptr @_ZN3g2o17csparse_extension17cs_chol_workspaceEPK12cs_di_sparsePK14cs_di_symbolicPiPd(ptr noundef %36, ptr noundef %37, ptr noundef %38, ptr noundef %39)
  store ptr %40, ptr %12, align 8
  %41 = load ptr, ptr %12, align 8
  %42 = icmp ne ptr %41, null
  br i1 %42, label %44, label %43

43:                                               ; preds = %32
  br label %44

44:                                               ; preds = %43, %32
  %45 = load ptr, ptr %12, align 8
  %46 = icmp ne ptr %45, null
  %47 = zext i1 %46 to i32
  store i32 %47, ptr %14, align 4
  %48 = load i32, ptr %14, align 4
  %49 = icmp ne i32 %48, 0
  br i1 %49, label %50, label %75

50:                                               ; preds = %44
  %51 = load ptr, ptr %9, align 8
  %52 = getelementptr inbounds nuw %struct.cs_di_symbolic, ptr %51, i32 0, i32 0
  %53 = load ptr, ptr %52, align 8
  %54 = load ptr, ptr %8, align 8
  %55 = load ptr, ptr %10, align 8
  %56 = load i32, ptr %13, align 4
  %57 = call i32 @cs_di_ipvec(ptr noundef %53, ptr noundef %54, ptr noundef %55, i32 noundef %56)
  %58 = load ptr, ptr %12, align 8
  %59 = getelementptr inbounds nuw %struct.cs_di_numeric, ptr %58, i32 0, i32 0
  %60 = load ptr, ptr %59, align 8
  %61 = load ptr, ptr %10, align 8
  %62 = call i32 @cs_di_lsolve(ptr noundef %60, ptr noundef %61)
  %63 = load ptr, ptr %12, align 8
  %64 = getelementptr inbounds nuw %struct.cs_di_numeric, ptr %63, i32 0, i32 0
  %65 = load ptr, ptr %64, align 8
  %66 = load ptr, ptr %10, align 8
  %67 = call i32 @cs_di_ltsolve(ptr noundef %65, ptr noundef %66)
  %68 = load ptr, ptr %9, align 8
  %69 = getelementptr inbounds nuw %struct.cs_di_symbolic, ptr %68, i32 0, i32 0
  %70 = load ptr, ptr %69, align 8
  %71 = load ptr, ptr %10, align 8
  %72 = load ptr, ptr %8, align 8
  %73 = load i32, ptr %13, align 4
  %74 = call i32 @cs_di_pvec(ptr noundef %70, ptr noundef %71, ptr noundef %72, i32 noundef %73)
  br label %75

75:                                               ; preds = %50, %44
  %76 = load ptr, ptr %12, align 8
  %77 = call ptr @cs_di_nfree(ptr noundef %76)
  %78 = load i32, ptr %14, align 4
  store i32 %78, ptr %6, align 4
  br label %79

79:                                               ; preds = %75, %31
  %80 = load i32, ptr %6, align 4
  ret i32 %80
}