; Function Attrs: mustprogress uwtable
define noundef range(i32 0, 2) i32 @_ZN3g2o17csparse_extension14cs_cholsolsymbEPK12cs_di_sparsePdPK14cs_di_symbolicS4_Pi(ptr noundef %0, ptr noundef %1, ptr noundef %2, ptr noundef %3, ptr noundef %4) local_unnamed_addr #0 {
  %.not = icmp eq ptr %0, null
  br i1 %.not, label %30, label %6

6:                                                ; preds = %5
  %7 = getelementptr inbounds nuw i8, ptr %0, i64 40
  %8 = load i32, ptr %7, align 8
  %9 = icmp eq i32 %8, -1
  %10 = icmp ne ptr %1, null
  %or.cond = and i1 %10, %9
  %11 = icmp ne ptr %2, null
  %or.cond3 = and i1 %11, %or.cond
  %12 = icmp ne ptr %3, null
  %or.cond5 = and i1 %12, %or.cond3
  br i1 %or.cond5, label %13, label %30

13:                                               ; preds = %6
  %14 = getelementptr inbounds nuw i8, ptr %0, i64 8
  %15 = load i32, ptr %14, align 8
  %16 = tail call noundef ptr @_ZN3g2o17csparse_extension17cs_chol_workspaceEPK12cs_di_sparsePK14cs_di_symbolicPiPd(ptr noundef nonnull %0, ptr noundef nonnull %2, ptr noundef %4, ptr noundef nonnull %3)
  %17 = icmp ne ptr %16, null
  %18 = zext i1 %17 to i32
  br i1 %17, label %19, label %28

19:                                               ; preds = %13
  %20 = load ptr, ptr %2, align 8
  %21 = tail call i32 @cs_di_ipvec(ptr noundef %20, ptr noundef nonnull %1, ptr noundef nonnull %3, i32 noundef %15)
  %22 = load ptr, ptr %16, align 8
  %23 = tail call i32 @cs_di_lsolve(ptr noundef %22, ptr noundef nonnull %3)
  %24 = load ptr, ptr %16, align 8
  %25 = tail call i32 @cs_di_ltsolve(ptr noundef %24, ptr noundef nonnull %3)
  %26 = load ptr, ptr %2, align 8
  %27 = tail call i32 @cs_di_pvec(ptr noundef %26, ptr noundef nonnull %3, ptr noundef nonnull %1, i32 noundef %15)
  br label %28

28:                                               ; preds = %19, %13
  %29 = tail call ptr @cs_di_nfree(ptr noundef %16)
  br label %30

30:                                               ; preds = %5, %6, %28
  %.0 = phi i32 [ %18, %28 ], [ 0, %6 ], [ 0, %5 ]
  ret i32 %.0
}